; Function Attrs: mustprogress uwtable
define hidden noundef ptr @_ZNK7datalog13udoc_relation5cloneEv(ptr noundef nonnull align 8 dereferenceable(128) %0) unnamed_addr #3 align 2 {
  %2 = getelementptr inbounds nuw i8, ptr %0, i64 8
  %3 = load ptr, ptr %2, align 8, !tbaa !167
  %4 = getelementptr inbounds nuw i8, ptr %0, i64 16
  %5 = load ptr, ptr %3, align 8, !tbaa !3
  %6 = getelementptr inbounds nuw i8, ptr %5, i64 40
  %7 = load ptr, ptr %6, align 8
  %8 = tail call noundef ptr %7(ptr noundef nonnull align 8 dereferenceable(129) %3, ptr noundef nonnull align 8 dereferenceable(8) %4)
  %.not.i = icmp eq ptr %8, null
  br i1 %.not.i, label %_ZN7datalog11udoc_plugin3getEPNS_13relation_baseE.exit, label %9

9:                                                ; preds = %1
  %10 = tail call ptr @__dynamic_cast(ptr nonnull readonly %8, ptr nonnull @_ZTIN7datalog13relation_baseE, ptr nonnull @_ZTIN7datalog13udoc_relationE, i64 0) #24
  br label %_ZN7datalog11udoc_plugin3getEPNS_13relation_baseE.exit

_ZN7datalog11udoc_plugin3getEPNS_13relation_baseE.exit: ; preds = %1, %9
  %11 = phi ptr [ %10, %9 ], [ null, %1 ]
  %12 = getelementptr inbounds nuw i8, ptr %0, i64 48
  %13 = load i32, ptr %12, align 8, !tbaa !35
  %.not = icmp eq i32 %13, 0
  br i1 %.not, label %._crit_edge, label %.lr.ph

.lr.ph:                                           ; preds = %_ZN7datalog11udoc_plugin3getEPNS_13relation_baseE.exit
  %14 = getelementptr inbounds nuw i8, ptr %0, i64 40
  %15 = getelementptr inbounds nuw i8, ptr %11, i64 40
  %16 = getelementptr inbounds nuw i8, ptr %0, i64 32
  %17 = getelementptr inbounds nuw i8, ptr %11, i64 48
  %18 = getelementptr inbounds nuw i8, ptr %11, i64 52
  %19 = getelementptr inbounds nuw i8, ptr %11, i64 56
  br label %20

._crit_edge:                                      ; preds = %_ZN10union_bvecI11doc_manager3docE9push_backEPS1_.exit, %_ZN7datalog11udoc_plugin3getEPNS_13relation_baseE.exit
  ret ptr %11

20:                                               ; preds = %.lr.ph, %_ZN10union_bvecI11doc_manager3docE9push_backEPS1_.exit
  %indvars.iv = phi i64 [ 0, %.lr.ph ], [ %indvars.iv.next, %_ZN10union_bvecI11doc_manager3docE9push_backEPS1_.exit ]
  %21 = load ptr, ptr %16, align 8, !tbaa !144
  %22 = load ptr, ptr %14, align 8, !tbaa !32
  %23 = getelementptr inbounds nuw ptr, ptr %22, i64 %indvars.iv
  %24 = load ptr, ptr %23, align 8, !tbaa !148
  %25 = tail call noundef ptr @_ZN11doc_manager8allocateERK3doc(ptr noundef nonnull align 8 dereferenceable(1080) %21, ptr noundef nonnull align 8 dereferenceable(88) %24)
  %26 = load i32, ptr %17, align 8, !tbaa !35
  %27 = load i32, ptr %18, align 4, !tbaa !36
  %.not.i.i = icmp ult i32 %26, %27
  br i1 %.not.i.i, label %._crit_edge.i.i, label %28

._crit_edge.i.i:                                  ; preds = %20
  %.pre.i.i = load ptr, ptr %15, align 8, !tbaa !32
  br label %_ZN10union_bvecI11doc_manager3docE9push_backEPS1_.exit

28:                                               ; preds = %20
  %29 = shl i32 %27, 1
  %30 = zext i32 %29 to i64
  %31 = shl nuw nsw i64 %30, 3
  %32 = tail call noalias noundef ptr @_ZN6memory8allocateEm(i64 noundef %31)
  %33 = load i32, ptr %17, align 8, !tbaa !35
  %.not.i.i.i = icmp eq i32 %33, 0
  %.pre.i.i.i = load ptr, ptr %15, align 8, !tbaa !32
  br i1 %.not.i.i.i, label %._crit_edge.i.i.i, label %.lr.ph.i.i.i

.lr.ph.i.i.i:                                     ; preds = %28
  %wide.trip.count.i.i.i = zext i32 %33 to i64
  br label %36

._crit_edge.i.i.i:                                ; preds = %36, %28
  %.not.i.i.i.i = icmp eq ptr %.pre.i.i.i, %19
  %34 = icmp eq ptr %.pre.i.i.i, null
  %or.cond.i.i.i.i = or i1 %.not.i.i.i.i, %34
  br i1 %or.cond.i.i.i.i, label %_ZN6bufferIP3docLb0ELj8EE6expandEv.exit.i.i, label %35

35:                                               ; preds = %._crit_edge.i.i.i
  tail call void @_ZN6memory10deallocateEPv(ptr noundef nonnull %.pre.i.i.i)
  %.pre2.pre.i.i = load i32, ptr %17, align 8, !tbaa !35
  br label %_ZN6bufferIP3docLb0ELj8EE6expandEv.exit.i.i

36:                                               ; preds = %36, %.lr.ph.i.i.i
  %indvars.iv.i.i.i = phi i64 [ 0, %.lr.ph.i.i.i ], [ %indvars.iv.next.i.i.i, %36 ]
  %37 = getelementptr inbounds nuw ptr, ptr %32, i64 %indvars.iv.i.i.i
  %38 = getelementptr inbounds nuw ptr, ptr %.pre.i.i.i, i64 %indvars.iv.i.i.i
  %39 = load ptr, ptr %38, align 8, !tbaa !148
  store ptr %39, ptr %37, align 8, !tbaa !148
  %indvars.iv.next.i.i.i = add nuw nsw i64 %indvars.iv.i.i.i, 1
  %exitcond.not.i.i.i = icmp eq i64 %indvars.iv.next.i.i.i, %wide.trip.count.i.i.i
  br i1 %exitcond.not.i.i.i, label %._crit_edge.i.i.i, label %36, !llvm.loop !183

_ZN6bufferIP3docLb0ELj8EE6expandEv.exit.i.i:      ; preds = %35, %._crit_edge.i.i.i
  %.pre2.i.i = phi i32 [ %33, %._crit_edge.i.i.i ], [ %.pre2.pre.i.i, %35 ]
  store ptr %32, ptr %15, align 8, !tbaa !32
  store i32 %29, ptr %18, align 4, !tbaa !36
  br label %_ZN10union_bvecI11doc_manager3docE9push_backEPS1_.exit

_ZN10union_bvecI11doc_manager3docE9push_backEPS1_.exit: ; preds = %._crit_edge.i.i, %_ZN6bufferIP3docLb0ELj8EE6expandEv.exit.i.i
  %40 = phi i32 [ %26, %._crit_edge.i.i ], [ %.pre2.i.i, %_ZN6bufferIP3docLb0ELj8EE6expandEv.exit.i.i ]
  %41 = phi ptr [ %.pre.i.i, %._crit_edge.i.i ], [ %32, %_ZN6bufferIP3docLb0ELj8EE6expandEv.exit.i.i ]
  %42 = zext i32 %40 to i64
  %43 = getelementptr inbounds nuw ptr, ptr %41, i64 %42
  store ptr %25, ptr %43, align 8, !tbaa !148
  %44 = add i32 %40, 1
  store i32 %44, ptr %17, align 8, !tbaa !35
  %indvars.iv.next = add nuw nsw i64 %indvars.iv, 1
  %45 = load i32, ptr %12, align 8, !tbaa !35
  %46 = zext i32 %45 to i64
  %47 = icmp samesign ult i64 %indvars.iv.next, %46
  br i1 %47, label %20, label %._crit_edge, !llvm.loop !190
}